target datalayout = "e-m:e-p270:32:32-p271:32:32-p272:64:64-i64:64-i128:128-f80:128-n8:16:32:64-S128"
target triple = "x86_64-unknown-linux-gnu"

%struct.SHA256state_st = type { [8 x i32], i32, i32, [16 x i32], i32, i32 }

; Function Attrs: nounwind uwtable
define dso_local i32 @SHA256_Update(ptr noundef %c, ptr noundef %data_, i64 noundef %len) #0 {
entry:
  %retval = alloca i32, align 4
  %c.addr = alloca ptr, align 8
  %data_.addr = alloca ptr, align 8
  %len.addr = alloca i64, align 8
  %data = alloca ptr, align 8
  %p = alloca ptr, align 8
  %l = alloca i32, align 4
  %n = alloca i64, align 8
  store ptr %c, ptr %c.addr, align 8
  store ptr %data_, ptr %data_.addr, align 8
  store i64 %len, ptr %len.addr, align 8
  %0 = load ptr, ptr %data_.addr, align 8
  store ptr %0, ptr %data, align 8
  %1 = load i64, ptr %len.addr, align 8
  %cmp = icmp eq i64 %1, 0
  br i1 %cmp, label %if.then, label %if.end

if.then:                                          ; preds = %entry
  store i32 1, ptr %retval, align 4
  br label %return

if.end:                                           ; preds = %entry
  %2 = load ptr, ptr %c.addr, align 8
  %Nl = getelementptr inbounds %struct.SHA256state_st, ptr %2, i32 0, i32 1
  %3 = load i32, ptr %Nl, align 4
  %4 = load i64, ptr %len.addr, align 8
  %conv = trunc i64 %4 to i32
  %shl = shl i32 %conv, 3
  %add = add i32 %3, %shl
  %conv1 = zext i32 %add to i64
  %and = and i64 %conv1, 4294967295
  %conv2 = trunc i64 %and to i32
  store i32 %conv2, ptr %l, align 4
  %5 = load i32, ptr %l, align 4
  %6 = load ptr, ptr %c.addr, align 8
  %Nl3 = getelementptr inbounds %struct.SHA256state_st, ptr %6, i32 0, i32 1
  %7 = load i32, ptr %Nl3, align 4
  %cmp4 = icmp ult i32 %5, %7
  br i1 %cmp4, label %if.then6, label %if.end7

if.then6:                                         ; preds = %if.end
  %8 = load ptr, ptr %c.addr, align 8
  %Nh = getelementptr inbounds %struct.SHA256state_st, ptr %8, i32 0, i32 2
  %9 = load i32, ptr %Nh, align 4
  %inc = add i32 %9, 1
  store i32 %inc, ptr %Nh, align 4
  br label %if.end7

if.end7:                                          ; preds = %if.then6, %if.end
  %10 = load i64, ptr %len.addr, align 8
  %shr = lshr i64 %10, 29
  %conv8 = trunc i64 %shr to i32
  %11 = load ptr, ptr %c.addr, align 8
  %Nh9 = getelementptr inbounds %struct.SHA256state_st, ptr %11, i32 0, i32 2
  %12 = load i32, ptr %Nh9, align 4
  %add10 = add i32 %12, %conv8
  store i32 %add10, ptr %Nh9, align 4
  %13 = load i32, ptr %l, align 4
  %14 = load ptr, ptr %c.addr, align 8
  %Nl11 = getelementptr inbounds %struct.SHA256state_st, ptr %14, i32 0, i32 1
  store i32 %13, ptr %Nl11, align 4
  %15 = load ptr, ptr %c.addr, align 8
  %num = getelementptr inbounds %struct.SHA256state_st, ptr %15, i32 0, i32 4
  %16 = load i32, ptr %num, align 4
  %conv12 = zext i32 %16 to i64
  store i64 %conv12, ptr %n, align 8
  %17 = load i64, ptr %n, align 8
  %cmp13 = icmp ne i64 %17, 0
  br i1 %cmp13, label %if.then15, label %if.end32

if.then15:                                        ; preds = %if.end7
  %18 = load ptr, ptr %c.addr, align 8
  %data16 = getelementptr inbounds %struct.SHA256state_st, ptr %18, i32 0, i32 3
  %arraydecay = getelementptr inbounds [16 x i32], ptr %data16, i64 0, i64 0
  store ptr %arraydecay, ptr %p, align 8
  %19 = load i64, ptr %len.addr, align 8
  %cmp17 = icmp uge i64 %19, 64
  br i1 %cmp17, label %if.then22, label %lor.lhs.false

lor.lhs.false:                                    ; preds = %if.then15
  %20 = load i64, ptr %len.addr, align 8
  %21 = load i64, ptr %n, align 8
  %add19 = add i64 %20, %21
  %cmp20 = icmp uge i64 %add19, 64
  br i1 %cmp20, label %if.then22, label %if.else

if.then22:                                        ; preds = %lor.lhs.false, %if.then15
  %22 = load ptr, ptr %p, align 8
  %23 = load i64, ptr %n, align 8
  %add.ptr = getelementptr inbounds i8, ptr %22, i64 %23
  %24 = load ptr, ptr %data, align 8
  %25 = load i64, ptr %n, align 8
  %sub = sub i64 64, %25
  call void @llvm.memcpy.p0.p0.i64(ptr align 1 %add.ptr, ptr align 1 %24, i64 %sub, i1 false)
  %26 = load ptr, ptr %c.addr, align 8
  %27 = load ptr, ptr %p, align 8
  call void @sha256_block_data_order(ptr noundef %26, ptr noundef %27, i64 noundef 1)
  %28 = load i64, ptr %n, align 8
  %sub23 = sub i64 64, %28
  store i64 %sub23, ptr %n, align 8
  %29 = load i64, ptr %n, align 8
  %30 = load ptr, ptr %data, align 8
  %add.ptr24 = getelementptr inbounds i8, ptr %30, i64 %29
  store ptr %add.ptr24, ptr %data, align 8
  %31 = load i64, ptr %n, align 8
  %32 = load i64, ptr %len.addr, align 8
  %sub25 = sub i64 %32, %31
  store i64 %sub25, ptr %len.addr, align 8
  %33 = load ptr, ptr %c.addr, align 8
  %num26 = getelementptr inbounds %struct.SHA256state_st, ptr %33, i32 0, i32 4
  store i32 0, ptr %num26, align 4
  %34 = load ptr, ptr %p, align 8
  call void @llvm.memset.p0.i64(ptr align 1 %34, i8 0, i64 64, i1 false)
  br label %if.end31

if.else:                                          ; preds = %lor.lhs.false
  %35 = load ptr, ptr %p, align 8
  %36 = load i64, ptr %n, align 8
  %add.ptr27 = getelementptr inbounds i8, ptr %35, i64 %36
  %37 = load ptr, ptr %data, align 8
  %38 = load i64, ptr %len.addr, align 8
  call void @llvm.memcpy.p0.p0.i64(ptr align 1 %add.ptr27, ptr align 1 %37, i64 %38, i1 false)
  %39 = load i64, ptr %len.addr, align 8
  %conv28 = trunc i64 %39 to i32
  %40 = load ptr, ptr %c.addr, align 8
  %num29 = getelementptr inbounds %struct.SHA256state_st, ptr %40, i32 0, i32 4
  %41 = load i32, ptr %num29, align 4
  %add30 = add i32 %41, %conv28
  store i32 %add30, ptr %num29, align 4
  store i32 1, ptr %retval, align 4
  br label %return

if.end31:                                         ; preds = %if.then22
  br label %if.end32

if.end32:                                         ; preds = %if.end31, %if.end7
  %42 = load i64, ptr %len.addr, align 8
  %div = udiv i64 %42, 64
  store i64 %div, ptr %n, align 8
  %43 = load i64, ptr %n, align 8
  %cmp33 = icmp ugt i64 %43, 0
  br i1 %cmp33, label %if.then35, label %if.end38

if.then35:                                        ; preds = %if.end32
  %44 = load ptr, ptr %c.addr, align 8
  %45 = load ptr, ptr %data, align 8
  %46 = load i64, ptr %n, align 8
  call void @sha256_block_data_order(ptr noundef %44, ptr noundef %45, i64 noundef %46)
  %47 = load i64, ptr %n, align 8
  %mul = mul i64 %47, 64
  store i64 %mul, ptr %n, align 8
  %48 = load i64, ptr %n, align 8
  %49 = load ptr, ptr %data, align 8
  %add.ptr36 = getelementptr inbounds i8, ptr %49, i64 %48
  store ptr %add.ptr36, ptr %data, align 8
  %50 = load i64, ptr %n, align 8
  %51 = load i64, ptr %len.addr, align 8
  %sub37 = sub i64 %51, %50
  store i64 %sub37, ptr %len.addr, align 8
  br label %if.end38

if.end38:                                         ; preds = %if.then35, %if.end32
  %52 = load i64, ptr %len.addr, align 8
  %cmp39 = icmp ne i64 %52, 0
  br i1 %cmp39, label %if.then41, label %if.end46

if.then41:                                        ; preds = %if.end38
  %53 = load ptr, ptr %c.addr, align 8
  %data42 = getelementptr inbounds %struct.SHA256state_st, ptr %53, i32 0, i32 3
  %arraydecay43 = getelementptr inbounds [16 x i32], ptr %data42, i64 0, i64 0
  store ptr %arraydecay43, ptr %p, align 8
  %54 = load i64, ptr %len.addr, align 8
  %conv44 = trunc i64 %54 to i32
  %55 = load ptr, ptr %c.addr, align 8
  %num45 = getelementptr inbounds %struct.SHA256state_st, ptr %55, i32 0, i32 4
  store i32 %conv44, ptr %num45, align 4
  %56 = load ptr, ptr %p, align 8
  %57 = load ptr, ptr %data, align 8
  %58 = load i64, ptr %len.addr, align 8
  call void @llvm.memcpy.p0.p0.i64(ptr align 1 %56, ptr align 1 %57, i64 %58, i1 false)
  br label %if.end46

if.end46:                                         ; preds = %if.then41, %if.end38
  store i32 1, ptr %retval, align 4
  br label %return

return:                                           ; preds = %if.end46, %if.else, %if.then
  %59 = load i32, ptr %retval, align 4
  ret i32 %59
}