; Function Attrs: nofree norecurse nosync nounwind memory(readwrite, inaccessiblemem: none) uwtable
define dso_local noundef i32 @SHA256_Update(ptr noundef %c, ptr noundef %data_, i64 noundef %len) local_unnamed_addr #2 {
entry:
  %cmp = icmp eq i64 %len, 0
  br i1 %cmp, label %return, label %if.end

if.end:                                           ; preds = %entry
  %Nl = getelementptr inbounds i8, ptr %c, i64 32
  %0 = load i32, ptr %Nl, align 4
  %conv = trunc i64 %len to i32
  %shl = shl i32 %conv, 3
  %add = add i32 %0, %shl
  %cmp4 = icmp ult i32 %add, %0
  %Nh = getelementptr inbounds i8, ptr %c, i64 36
  %1 = load i32, ptr %Nh, align 4
  %inc = zext i1 %cmp4 to i32
  %2 = add i32 %1, %inc
  %shr = lshr i64 %len, 29
  %conv8 = trunc i64 %shr to i32
  %Nh9 = getelementptr inbounds i8, ptr %c, i64 36
  %add10 = add i32 %2, %conv8
  store i32 %add10, ptr %Nh9, align 4
  store i32 %add, ptr %Nl, align 4
  %num = getelementptr inbounds i8, ptr %c, i64 104
  %3 = load i32, ptr %num, align 4
  %conv12 = zext i32 %3 to i64
  %cmp13.not = icmp eq i32 %3, 0
  br i1 %cmp13.not, label %if.end32, label %if.then15

if.then15:                                        ; preds = %if.end
  %data16 = getelementptr inbounds i8, ptr %c, i64 40
  %cmp17 = icmp ugt i64 %len, 63
  %add19 = add nuw nsw i64 %conv12, %len
  %cmp20 = icmp ugt i64 %add19, 63
  %or.cond = select i1 %cmp17, i1 true, i1 %cmp20
  %add.ptr = getelementptr inbounds i8, ptr %data16, i64 %conv12
  br i1 %or.cond, label %if.then22, label %if.else

if.then22:                                        ; preds = %if.then15
  %sub = sub nsw i64 64, %conv12
  tail call void @llvm.memcpy.p0.p0.i64(ptr nonnull align 1 %add.ptr, ptr align 1 %data_, i64 %sub, i1 false)
  tail call fastcc void @sha256_block_data_order(ptr noundef nonnull %c, ptr noundef nonnull %data16, i64 noundef 1)
  %add.ptr24 = getelementptr inbounds i8, ptr %data_, i64 %sub
  %sub25 = sub i64 %len, %sub
  tail call void @llvm.memset.p0.i64(ptr noundef nonnull align 1 dereferenceable(68) %data16, i8 0, i64 68, i1 false)
  br label %if.end32

if.else:                                          ; preds = %if.then15
  tail call void @llvm.memcpy.p0.p0.i64(ptr nonnull align 1 %add.ptr, ptr align 1 %data_, i64 %len, i1 false)
  %4 = load i32, ptr %num, align 4
  %add30 = add i32 %4, %conv
  store i32 %add30, ptr %num, align 4
  br label %return

if.end32:                                         ; preds = %if.then22, %if.end
  %len.addr.0 = phi i64 [ %sub25, %if.then22 ], [ %len, %if.end ]
  %data.0 = phi ptr [ %add.ptr24, %if.then22 ], [ %data_, %if.end ]
  %cmp33.not = icmp ult i64 %len.addr.0, 64
  br i1 %cmp33.not, label %if.end38, label %if.then35

if.then35:                                        ; preds = %if.end32
  %div47 = lshr i64 %len.addr.0, 6
  tail call fastcc void @sha256_block_data_order(ptr noundef nonnull %c, ptr noundef %data.0, i64 noundef %div47)
  %mul = and i64 %len.addr.0, -64
  %add.ptr36 = getelementptr inbounds i8, ptr %data.0, i64 %mul
  %sub37 = and i64 %len.addr.0, 63
  br label %if.end38

if.end38:                                         ; preds = %if.then35, %if.end32
  %len.addr.1 = phi i64 [ %sub37, %if.then35 ], [ %len.addr.0, %if.end32 ]
  %data.1 = phi ptr [ %add.ptr36, %if.then35 ], [ %data.0, %if.end32 ]
  %cmp39.not = icmp eq i64 %len.addr.1, 0
  br i1 %cmp39.not, label %return, label %if.then41

if.then41:                                        ; preds = %if.end38
  %data42 = getelementptr inbounds i8, ptr %c, i64 40
  %conv44 = trunc i64 %len.addr.1 to i32
  store i32 %conv44, ptr %num, align 4
  tail call void @llvm.memcpy.p0.p0.i64(ptr nonnull align 1 %data42, ptr align 1 %data.1, i64 %len.addr.1, i1 false)
  br label %return

return:                                           ; preds = %if.end38, %if.then41, %entry, %if.else
  ret i32 1
}